(dp1
I1
(iHuffman
Histogram
p2
(dp3
S'ESCAPE_CODE'
p4
I-1
sS'queue'
p5
ccollections
deque
p6
((ltRp7
sS'LOW_FREQ'
p8
I10
sbsI2
(iHuffman
Histogram
p9
(dp10
g4
I-1
sg5
g6
((ltRp11
sg8
I10
sbsI3
(iHuffman
Histogram
p12
(dp13
g4
I-1
sg5
g6
((ltRp14
sg8
I10
sbsI4
(iHuffman
Histogram
p15
(dp16
g4
I-1
sg5
g6
((ltRp17
sg8
I10
sbsI5
(iHuffman
Histogram
p18
(dp19
g4
I-1
sg5
g6
((ltRp20
sg8
I10
sbsI6
(iHuffman
Histogram
p21
(dp22
g4
I-1
sg5
g6
((ltRp23
sg8
I10
sbs.